Certificate:
    Data:
        Version: 3 (0x2)
        Serial Number: 1 (0x1)
    Signature Algorithm: sha256WithRSAEncryption
        Issuer: CN=devcert
        Validity
            Not Before: May  4 17:21:38 2020 GMT
            Not After : Aug  7 17:21:38 2022 GMT
        Subject: CN=localhost
        Subject Public Key Info:
            Public Key Algorithm: rsaEncryption
                Public-Key: (2048 bit)
                Modulus:
                    00:d0:c9:93:3c:77:70:14:b6:74:b0:26:43:20:82:
                    d8:a6:11:31:77:9f:00:f3:25:13:3c:2f:e3:2d:83:
                    c0:d9:7b:03:9c:53:2c:f3:54:8b:d1:cc:45:6a:2e:
                    39:f8:30:bd:2d:00:bf:cb:b6:f7:ef:24:5c:12:a7:
                    19:c3:c6:41:86:01:b3:86:92:a7:c9:4e:2c:af:96:
                    0b:f7:8a:cf:8c:07:14:19:97:46:08:8a:99:f7:87:
                    4c:4b:b0:35:80:27:de:e4:8a:25:d3:c8:94:c0:29:
                    e6:eb:a4:22:34:29:94:ef:5a:de:fa:3f:c5:5c:1d:
                    6e:42:c7:9f:42:eb:84:68:86:88:ca:c3:8f:ec:c6:
                    d0:46:a5:29:75:22:6b:0f:6c:c4:bc:f5:1f:c3:30:
                    28:f8:59:30:8f:bb:18:4c:ca:c4:54:70:21:cd:64:
                    42:8e:fa:bc:4d:a3:2d:7a:7e:18:53:20:4e:f6:0a:
                    90:dd:83:0a:7e:3e:79:59:57:2f:68:55:89:58:74:
                    f6:0e:e9:f9:b2:e1:78:8c:04:c8:b5:79:0b:20:1e:
                    f6:a9:26:a8:bb:67:c4:d9:a8:36:ec:5c:09:10:48:
                    b1:31:66:61:e9:ff:19:f4:80:8a:de:43:2b:cf:4b:
                    ea:5b:29:5d:95:51:18:f3:1e:d0:d4:49:da:87:ca:
                    bf:d7
                Exponent: 65537 (0x10001)
        X509v3 extensions:
            X509v3 Basic Constraints: critical
                CA:FALSE
            X509v3 Subject Key Identifier: 
                07:DB:B3:71:21:A7:D7:01:B2:C3:03:56:27:01:66:B0:4C:9C:5F:99
            X509v3 Authority Key Identifier: 
                keyid:2E:7E:36:A0:FF:9F:31:29:4F:53:F4:E1:0F:62:EE:8B:41:97:85:48
                DirName:/CN=devcert
                serial:EE:63:21:48:7D:7A:2B:4F

            X509v3 Key Usage: critical
                Digital Signature, Key Encipherment
            X509v3 Extended Key Usage: 
                TLS Web Server Authentication
            X509v3 Subject Alternative Name: 
                DNS:localhost, DNS:*.localhost
    Signature Algorithm: sha256WithRSAEncryption
         17:49:d3:5b:47:0e:75:23:90:d3:b4:e2:b4:32:9d:46:c8:db:
         fb:9a:48:02:93:a1:69:04:a3:07:66:8d:b0:50:20:78:bd:50:
         be:7c:36:48:32:ec:76:47:75:59:99:54:7b:a0:1f:cb:6c:d9:
         5a:6c:90:5e:ca:08:3b:39:3e:50:2f:8e:34:8c:77:36:9b:21:
         78:39:77:c8:71:3e:d1:1e:c5:2f:82:73:6c:e0:2b:35:e2:41:
         57:d5:37:fd:17:d0:3d:a7:ac:e8:0f:c6:db:e7:0b:01:e5:ea:
         cf:9a:69:ac:76:26:39:15:5d:44:59:cf:5b:61:13:b0:c4:69:
         7b:e6:d1:35:63:16:58:00:8a:da:48:73:dd:d8:d8:27:88:ea:
         e2:2b:98:bd:63:e8:4b:7b:aa:b7:87:49:61:00:75:29:b3:b1:
         e4:83:48:90:ab:03:d5:33:fc:f9:49:bc:76:75:fb:d5:28:71:
         49:0c:05:a4:c1:27:03:35:c6:fa:cb:96:05:eb:5a:f0:c0:c1:
         c9:32:f4:3c:1b:50:0f:a9:53:2f:0b:ef:37:44:f0:0a:db:5c:
         41:e3:a7:f6:0f:f3:ce:9d:2b:db:cf:21:03:ca:46:de:e0:24:
         cc:3d:67:d5:29:e8:93:05:c6:6e:fd:ca:46:3d:d5:70:35:2b:
         a2:a6:84:8f
-----BEGIN CERTIFICATE-----
MIIDXjCCAkagAwIBAgIBATANBgkqhkiG9w0BAQsFADASMRAwDgYDVQQDDAdkZXZj
ZXJ0MB4XDTIwMDUwNDE3MjEzOFoXDTIyMDgwNzE3MjEzOFowFDESMBAGA1UEAwwJ
bG9jYWxob3N0MIIBIjANBgkqhkiG9w0BAQEFAAOCAQ8AMIIBCgKCAQEA0MmTPHdw
FLZ0sCZDIILYphExd58A8yUTPC/jLYPA2XsDnFMs81SL0cxFai45+DC9LQC/y7b3
7yRcEqcZw8ZBhgGzhpKnyU4sr5YL94rPjAcUGZdGCIqZ94dMS7A1gCfe5Iol08iU
wCnm66QiNCmU71re+j/FXB1uQsefQuuEaIaIysOP7MbQRqUpdSJrD2zEvPUfwzAo
+Fkwj7sYTMrEVHAhzWRCjvq8TaMten4YUyBO9gqQ3YMKfj55WVcvaFWJWHT2Dun5
suF4jATItXkLIB72qSaou2fE2ag27FwJEEixMWZh6f8Z9ICK3kMrz0vqWyldlVEY
8x7Q1Enah8q/1wIDAQABo4G8MIG5MAwGA1UdEwEB/wQCMAAwHQYDVR0OBBYEFAfb
s3Ehp9cBssMDVicBZrBMnF+ZMEIGA1UdIwQ7MDmAFC5+NqD/nzEpT1P04Q9i7otB
l4VIoRakFDASMRAwDgYDVQQDDAdkZXZjZXJ0ggkA7mMhSH16K08wDgYDVR0PAQH/
BAQDAgWgMBMGA1UdJQQMMAoGCCsGAQUFBwMBMCEGA1UdEQQaMBiCCWxvY2FsaG9z
dIILKi5sb2NhbGhvc3QwDQYJKoZIhvcNAQELBQADggEBABdJ01tHDnUjkNO04rQy
nUbI2/uaSAKToWkEowdmjbBQIHi9UL58Nkgy7HZHdVmZVHugH8ts2VpskF7KCDs5
PlAvjjSMdzabIXg5d8hxPtEexS+Cc2zgKzXiQVfVN/0X0D2nrOgPxtvnCwHl6s+a
aax2JjkVXURZz1thE7DEaXvm0TVjFlgAitpIc93Y2CeI6uIrmL1j6Et7qreHSWEA
dSmzseSDSJCrA9Uz/PlJvHZ1+9UocUkMBaTBJwM1xvrLlgXrWvDAwcky9DwbUA+p
Uy8L7zdE8ArbXEHjp/YP886dK9vPIQPKRt7gJMw9Z9Up6JMFxm79ykY91XA1K6Km
hI8=
-----END CERTIFICATE-----
